; Function Attrs: mustprogress uwtable
define hidden noundef i32 @_Z9record_cbjyyjPv(i32 noundef %id, i64 noundef %0, i64 noundef %to, i32 noundef %1, ptr nocapture noundef %ctxt) local_unnamed_addr #3 personality ptr @__gxx_personality_v0 {
entry:
  %_M_finish.i = getelementptr inbounds i8, ptr %ctxt, i64 16
  %2 = load ptr, ptr %_M_finish.i, align 8
  %_M_end_of_storage.i = getelementptr inbounds i8, ptr %ctxt, i64 24
  %3 = load ptr, ptr %_M_end_of_storage.i, align 8
  %cmp.not.i = icmp eq ptr %2, %3
  br i1 %cmp.not.i, label %if.else.i, label %if.then.i

if.then.i:                                        ; preds = %entry
  store i64 %to, ptr %2, align 8
  %id.i.i.i.i = getelementptr inbounds i8, ptr %2, i64 8
  store i32 %id, ptr %id.i.i.i.i, align 8
  %4 = load ptr, ptr %_M_finish.i, align 8
  %incdec.ptr.i = getelementptr inbounds i8, ptr %4, i64 16
  store ptr %incdec.ptr.i, ptr %_M_finish.i, align 8
  br label %_ZNSt6vectorI11MatchRecordSaIS0_EE12emplace_backIJRyRjEEEvDpOT_.exit

if.else.i:                                        ; preds = %entry
  %matches = getelementptr inbounds i8, ptr %ctxt, i64 8
  %5 = load ptr, ptr %matches, align 8
  %sub.ptr.lhs.cast.i.i.i = ptrtoint ptr %2 to i64
  %sub.ptr.rhs.cast.i.i.i = ptrtoint ptr %5 to i64
  %sub.ptr.sub.i.i.i = sub i64 %sub.ptr.lhs.cast.i.i.i, %sub.ptr.rhs.cast.i.i.i
  %cmp.i.i = icmp eq i64 %sub.ptr.sub.i.i.i, 9223372036854775792
  br i1 %cmp.i.i, label %if.then.i.i, label %_ZNKSt6vectorI11MatchRecordSaIS0_EE12_M_check_lenEmPKc.exit.i

if.then.i.i:                                      ; preds = %if.else.i
  tail call void @_ZSt20__throw_length_errorPKc(ptr noundef nonnull @.str.15) #24
  unreachable

_ZNKSt6vectorI11MatchRecordSaIS0_EE12_M_check_lenEmPKc.exit.i: ; preds = %if.else.i
  %sub.ptr.div.i.i.i = ashr exact i64 %sub.ptr.sub.i.i.i, 4
  %.sroa.speculated.i.i = tail call i64 @llvm.umax.i64(i64 %sub.ptr.div.i.i.i, i64 1)
  %add.i.i = add i64 %.sroa.speculated.i.i, %sub.ptr.div.i.i.i
  %cmp7.i.i = icmp ult i64 %add.i.i, %sub.ptr.div.i.i.i
  %6 = tail call i64 @llvm.umin.i64(i64 %add.i.i, i64 576460752303423487)
  %cond.i.i = select i1 %cmp7.i.i, i64 576460752303423487, i64 %6
  %cmp.not.i.i = icmp ne i64 %cond.i.i, 0
  tail call void @llvm.assume(i1 %cmp.not.i.i)
  %mul.i.i.i.i = shl nuw nsw i64 %cond.i.i, 4
  %call5.i.i.i.i = tail call noalias noundef nonnull ptr @_Znwm(i64 noundef %mul.i.i.i.i) #25
  %add.ptr.i = getelementptr inbounds i8, ptr %call5.i.i.i.i, i64 %sub.ptr.sub.i.i.i
  store i64 %to, ptr %add.ptr.i, align 8
  %id.i.i.i.i1 = getelementptr inbounds %struct.MatchRecord, ptr %call5.i.i.i.i, i64 %sub.ptr.div.i.i.i, i32 1
  store i32 %id, ptr %id.i.i.i.i1, align 8
  %cmp.not6.i.i.i.i.i = icmp eq ptr %5, %2
  br i1 %cmp.not6.i.i.i.i.i, label %_ZNSt6vectorI11MatchRecordSaIS0_EE11_S_relocateEPS0_S3_S3_RS1_.exit58.i, label %for.body.i.i.i.i.i

for.body.i.i.i.i.i:                               ; preds = %_ZNKSt6vectorI11MatchRecordSaIS0_EE12_M_check_lenEmPKc.exit.i, %for.body.i.i.i.i.i
  %__cur.08.i.i.i.i.i = phi ptr [ %incdec.ptr1.i.i.i.i.i, %for.body.i.i.i.i.i ], [ %call5.i.i.i.i, %_ZNKSt6vectorI11MatchRecordSaIS0_EE12_M_check_lenEmPKc.exit.i ]
  %__first.addr.07.i.i.i.i.i = phi ptr [ %incdec.ptr.i.i.i.i.i, %for.body.i.i.i.i.i ], [ %5, %_ZNKSt6vectorI11MatchRecordSaIS0_EE12_M_check_lenEmPKc.exit.i ]
  tail call void @llvm.memcpy.p0.p0.i64(ptr noundef nonnull align 8 dereferenceable(16) %__cur.08.i.i.i.i.i, ptr noundef nonnull align 8 dereferenceable(16) %__first.addr.07.i.i.i.i.i, i64 16, i1 false), !alias.scope !5
  %incdec.ptr.i.i.i.i.i = getelementptr inbounds i8, ptr %__first.addr.07.i.i.i.i.i, i64 16
  %incdec.ptr1.i.i.i.i.i = getelementptr inbounds i8, ptr %__cur.08.i.i.i.i.i, i64 16
  %cmp.not.i.i.i.i.i = icmp eq ptr %incdec.ptr.i.i.i.i.i, %2
  br i1 %cmp.not.i.i.i.i.i, label %_ZNSt6vectorI11MatchRecordSaIS0_EE11_S_relocateEPS0_S3_S3_RS1_.exit58.i, label %for.body.i.i.i.i.i, !llvm.loop !9

_ZNSt6vectorI11MatchRecordSaIS0_EE11_S_relocateEPS0_S3_S3_RS1_.exit58.i: ; preds = %for.body.i.i.i.i.i, %_ZNKSt6vectorI11MatchRecordSaIS0_EE12_M_check_lenEmPKc.exit.i
  %__cur.0.lcssa.i.i.i.i.i = phi ptr [ %call5.i.i.i.i, %_ZNKSt6vectorI11MatchRecordSaIS0_EE12_M_check_lenEmPKc.exit.i ], [ %incdec.ptr1.i.i.i.i.i, %for.body.i.i.i.i.i ]
  %incdec.ptr.i2 = getelementptr i8, ptr %__cur.0.lcssa.i.i.i.i.i, i64 16
  %tobool.not.i.i = icmp eq ptr %5, null
  br i1 %tobool.not.i.i, label %_ZNSt6vectorI11MatchRecordSaIS0_EE17_M_realloc_insertIJRyRjEEEvN9__gnu_cxx17__normal_iteratorIPS0_S2_EEDpOT_.exit, label %if.then.i59.i

if.then.i59.i:                                    ; preds = %_ZNSt6vectorI11MatchRecordSaIS0_EE11_S_relocateEPS0_S3_S3_RS1_.exit58.i
  tail call void @_ZdlPv(ptr noundef nonnull %5) #26
  br label %_ZNSt6vectorI11MatchRecordSaIS0_EE17_M_realloc_insertIJRyRjEEEvN9__gnu_cxx17__normal_iteratorIPS0_S2_EEDpOT_.exit

_ZNSt6vectorI11MatchRecordSaIS0_EE17_M_realloc_insertIJRyRjEEEvN9__gnu_cxx17__normal_iteratorIPS0_S2_EEDpOT_.exit: ; preds = %_ZNSt6vectorI11MatchRecordSaIS0_EE11_S_relocateEPS0_S3_S3_RS1_.exit58.i, %if.then.i59.i
  store ptr %call5.i.i.i.i, ptr %matches, align 8
  store ptr %incdec.ptr.i2, ptr %_M_finish.i, align 8
  %add.ptr28.i = getelementptr inbounds %struct.MatchRecord, ptr %call5.i.i.i.i, i64 %cond.i.i
  store ptr %add.ptr28.i, ptr %_M_end_of_storage.i, align 8
  br label %_ZNSt6vectorI11MatchRecordSaIS0_EE12emplace_backIJRyRjEEEvDpOT_.exit

_ZNSt6vectorI11MatchRecordSaIS0_EE12emplace_backIJRyRjEEEvDpOT_.exit: ; preds = %_ZNSt6vectorI11MatchRecordSaIS0_EE17_M_realloc_insertIJRyRjEEEvN9__gnu_cxx17__normal_iteratorIPS0_S2_EEDpOT_.exit, %if.then.i
  %7 = load i8, ptr %ctxt, align 8, !range !11, !noundef !12
  %conv = zext nneg i8 %7 to i32
  ret i32 %conv
}